target datalayout = "e-m:e-p270:32:32-p271:32:32-p272:64:64-i64:64-i128:128-f80:128-n8:16:32:64-S128"
target triple = "x86_64-pc-linux-gnu"

%struct.agxbuf = type { %union.anon.4 }
%union.anon.4 = type { %struct.anon.5 }
%struct.anon.5 = type { ptr, i64, i64, [7 x i8], i8 }

@stderr = external global ptr, align 8
@.str.46 = private unnamed_addr constant [49 x i8] c"out of memory when trying to allocate %zu bytes\0A\00", align 1
@.str.187 = private unnamed_addr constant [5 x i8] c"%s:\0A\00", align 1
@.str.188 = private unnamed_addr constant [15 x i8] c"<command line>\00", align 1

; Function Attrs: inlinehint nounwind uwtable
define internal i64 @agxbsizeof(ptr noundef %0) #4 {
  %2 = alloca i64, align 8
  %3 = alloca ptr, align 8
  store ptr %0, ptr %3, align 8, !tbaa !3
  %4 = load ptr, ptr %3, align 8, !tbaa !3
  %5 = call zeroext i1 @agxbuf_is_inline(ptr noundef %4)
  br i1 %5, label %6, label %7

6:                                                ; preds = %1
  store i64 31, ptr %2, align 8
  br label %12

7:                                                ; preds = %1
  %8 = load ptr, ptr %3, align 8, !tbaa !3
  %9 = getelementptr inbounds nuw %struct.agxbuf, ptr %8, i32 0, i32 0
  %10 = getelementptr inbounds nuw %struct.anon.5, ptr %9, i32 0, i32 2
  %11 = load i64, ptr %10, align 8, !tbaa !97
  store i64 %11, ptr %2, align 8
  br label %12

12:                                               ; preds = %7, %6
  %13 = load i64, ptr %2, align 8
  ret i64 %13
}

; Function Attrs: inlinehint nounwind uwtable
define internal i32 @agxbputc(ptr noundef %0, i8 noundef signext %1) #4 {
  %3 = alloca ptr, align 8
  %4 = alloca i8, align 1
  %5 = alloca i64, align 8
  store ptr %0, ptr %3, align 8, !tbaa !3
  store i8 %1, ptr %4, align 1, !tbaa !97
  %6 = load ptr, ptr %3, align 8, !tbaa !3
  %7 = call i64 @agxblen(ptr noundef %6)
  %8 = load ptr, ptr %3, align 8, !tbaa !3
  %9 = call i64 @agxbsizeof(ptr noundef %8)
  %10 = icmp uge i64 %7, %9
  br i1 %10, label %11, label %13

11:                                               ; preds = %2
  %12 = load ptr, ptr %3, align 8, !tbaa !3
  call void @agxbmore(ptr noundef %12, i64 noundef 1)
  br label %13

13:                                               ; preds = %11, %2
  call void @llvm.lifetime.start.p0(i64 8, ptr %5) #16
  %14 = load ptr, ptr %3, align 8, !tbaa !3
  %15 = call i64 @agxblen(ptr noundef %14)
  store i64 %15, ptr %5, align 8, !tbaa !34
  %16 = load ptr, ptr %3, align 8, !tbaa !3
  %17 = call zeroext i1 @agxbuf_is_inline(ptr noundef %16)
  br i1 %17, label %18, label %29

18:                                               ; preds = %13
  %19 = load i8, ptr %4, align 1, !tbaa !97
  %20 = load ptr, ptr %3, align 8, !tbaa !3
  %21 = getelementptr inbounds nuw %struct.agxbuf, ptr %20, i32 0, i32 0
  %22 = load i64, ptr %5, align 8, !tbaa !34
  %23 = getelementptr inbounds nuw [31 x i8], ptr %21, i64 0, i64 %22
  store i8 %19, ptr %23, align 1, !tbaa !97
  %24 = load ptr, ptr %3, align 8, !tbaa !3
  %25 = getelementptr inbounds nuw %struct.agxbuf, ptr %24, i32 0, i32 0
  %26 = getelementptr inbounds nuw %struct.anon.5, ptr %25, i32 0, i32 4
  %27 = load i8, ptr %26, align 1, !tbaa !97
  %28 = add i8 %27, 1
  store i8 %28, ptr %26, align 1, !tbaa !97
  br label %42

29:                                               ; preds = %13
  %30 = load i8, ptr %4, align 1, !tbaa !97
  %31 = load ptr, ptr %3, align 8, !tbaa !3
  %32 = getelementptr inbounds nuw %struct.agxbuf, ptr %31, i32 0, i32 0
  %33 = getelementptr inbounds nuw %struct.anon.5, ptr %32, i32 0, i32 0
  %34 = load ptr, ptr %33, align 8, !tbaa !97
  %35 = load i64, ptr %5, align 8, !tbaa !34
  %36 = getelementptr inbounds nuw i8, ptr %34, i64 %35
  store i8 %30, ptr %36, align 1, !tbaa !97
  %37 = load ptr, ptr %3, align 8, !tbaa !3
  %38 = getelementptr inbounds nuw %struct.agxbuf, ptr %37, i32 0, i32 0
  %39 = getelementptr inbounds nuw %struct.anon.5, ptr %38, i32 0, i32 1
  %40 = load i64, ptr %39, align 8, !tbaa !97
  %41 = add i64 %40, 1
  store i64 %41, ptr %39, align 8, !tbaa !97
  br label %42

42:                                               ; preds = %29, %18
  call void @llvm.lifetime.end.p0(i64 8, ptr %5) #16
  ret i32 0
}

; Function Attrs: inlinehint nounwind uwtable
define internal ptr @gv_strndup(ptr noundef %0, i64 noundef %1) #4 {
  %3 = alloca ptr, align 8
  %4 = alloca i64, align 8
  %5 = alloca ptr, align 8
  store ptr %0, ptr %3, align 8, !tbaa !7
  store i64 %1, ptr %4, align 8, !tbaa !34
  call void @llvm.lifetime.start.p0(i64 8, ptr %5) #16
  %6 = load ptr, ptr %3, align 8, !tbaa !7
  %7 = load i64, ptr %4, align 8, !tbaa !34
  %8 = call noalias ptr @strndup(ptr noundef %6, i64 noundef %7) #16
  store ptr %8, ptr %5, align 8, !tbaa !7
  %9 = load ptr, ptr %5, align 8, !tbaa !7
  %10 = icmp eq ptr %9, null
  br i1 %10, label %11, label %16

11:                                               ; preds = %2
  %12 = load ptr, ptr @stderr, align 8, !tbaa !76
  %13 = load i64, ptr %4, align 8, !tbaa !34
  %14 = add i64 %13, 1
  %15 = call i32 (ptr, ptr, ...) @fprintf(ptr noundef %12, ptr noundef @.str.46, i64 noundef %14) #16
  call void @graphviz_exit(i32 noundef 1) #18
  unreachable

16:                                               ; preds = %2
  %17 = load ptr, ptr %5, align 8, !tbaa !7
  call void @llvm.lifetime.end.p0(i64 8, ptr %5) #16
  ret ptr %17
}

; Function Attrs: inlinehint nounwind uwtable
define internal i64 @agxblen(ptr noundef %0) #4 {
  %2 = alloca i64, align 8
  %3 = alloca ptr, align 8
  store ptr %0, ptr %3, align 8, !tbaa !3
  %4 = load ptr, ptr %3, align 8, !tbaa !3
  %5 = call zeroext i1 @agxbuf_is_inline(ptr noundef %4)
  br i1 %5, label %6, label %14

6:                                                ; preds = %1
  %7 = load ptr, ptr %3, align 8, !tbaa !3
  %8 = getelementptr inbounds nuw %struct.agxbuf, ptr %7, i32 0, i32 0
  %9 = getelementptr inbounds nuw %struct.anon.5, ptr %8, i32 0, i32 4
  %10 = load i8, ptr %9, align 1, !tbaa !97
  %11 = zext i8 %10 to i32
  %12 = sub nsw i32 %11, 0
  %13 = sext i32 %12 to i64
  store i64 %13, ptr %2, align 8
  br label %19

14:                                               ; preds = %1
  %15 = load ptr, ptr %3, align 8, !tbaa !3
  %16 = getelementptr inbounds nuw %struct.agxbuf, ptr %15, i32 0, i32 0
  %17 = getelementptr inbounds nuw %struct.anon.5, ptr %16, i32 0, i32 1
  %18 = load i64, ptr %17, align 8, !tbaa !97
  store i64 %18, ptr %2, align 8
  br label %19

19:                                               ; preds = %14, %6
  %20 = load i64, ptr %2, align 8
  ret i64 %20
}

; Function Attrs: inlinehint nounwind uwtable
define internal zeroext i1 @agxbuf_is_inline(ptr noundef %0) #4 {
  %2 = alloca ptr, align 8
  store ptr %0, ptr %2, align 8, !tbaa !3
  %3 = load ptr, ptr %2, align 8, !tbaa !3
  %4 = getelementptr inbounds nuw %struct.agxbuf, ptr %3, i32 0, i32 0
  %5 = getelementptr inbounds nuw %struct.anon.5, ptr %4, i32 0, i32 4
  %6 = load i8, ptr %5, align 1, !tbaa !97
  %7 = zext i8 %6 to i32
  %8 = icmp slt i32 %7, 255
  ret i1 %8
}

; Function Attrs: inlinehint nounwind uwtable
define internal ptr @agxbdisown(ptr noundef %0) #4 {
  %2 = alloca ptr, align 8
  %3 = alloca ptr, align 8
  store ptr %0, ptr %2, align 8, !tbaa !3
  call void @llvm.lifetime.start.p0(i64 8, ptr %3) #16
  %4 = load ptr, ptr %2, align 8, !tbaa !3
  %5 = call zeroext i1 @agxbuf_is_inline(ptr noundef %4)
  br i1 %5, label %6, label %13

6:                                                ; preds = %1
  %7 = load ptr, ptr %2, align 8, !tbaa !3
  %8 = getelementptr inbounds nuw %struct.agxbuf, ptr %7, i32 0, i32 0
  %9 = getelementptr inbounds [31 x i8], ptr %8, i64 0, i64 0
  %10 = load ptr, ptr %2, align 8, !tbaa !3
  %11 = call i64 @agxblen(ptr noundef %10)
  %12 = call ptr @gv_strndup(ptr noundef %9, i64 noundef %11)
  store ptr %12, ptr %3, align 8, !tbaa !7
  br label %20

13:                                               ; preds = %1
  %14 = load ptr, ptr %2, align 8, !tbaa !3
  %15 = call i32 @agxbputc(ptr noundef %14, i8 noundef signext 0)
  %16 = load ptr, ptr %2, align 8, !tbaa !3
  %17 = getelementptr inbounds nuw %struct.agxbuf, ptr %16, i32 0, i32 0
  %18 = getelementptr inbounds nuw %struct.anon.5, ptr %17, i32 0, i32 0
  %19 = load ptr, ptr %18, align 8, !tbaa !97
  store ptr %19, ptr %3, align 8, !tbaa !7
  br label %20

20:                                               ; preds = %13, %6
  %21 = load ptr, ptr %2, align 8, !tbaa !3
  call void @llvm.memset.p0.i64(ptr align 8 %21, i8 0, i64 32, i1 false)
  %22 = load ptr, ptr %3, align 8, !tbaa !7
  call void @llvm.lifetime.end.p0(i64 8, ptr %3) #16
  ret ptr %22
}

; Function Attrs: nounwind uwtable
define internal ptr @compile(ptr noundef %0, ptr noundef %1, ptr noundef %2, i32 noundef %3, ptr noundef %4, ptr noundef %5, i32 noundef %6) #0 {
  %8 = alloca ptr, align 8
  %9 = alloca ptr, align 8
  %10 = alloca ptr, align 8
  %11 = alloca i32, align 4
  %12 = alloca ptr, align 8
  %13 = alloca ptr, align 8
  %14 = alloca i32, align 4
  %15 = alloca ptr, align 8
  %16 = alloca i32, align 4
  %17 = alloca ptr, align 8
  %18 = alloca %struct.agxbuf, align 8
  store ptr %0, ptr %8, align 8, !tbaa !74
  store ptr %1, ptr %9, align 8, !tbaa !7
  store ptr %2, ptr %10, align 8, !tbaa !7
  store i32 %3, ptr %11, align 4, !tbaa !26
  store ptr %4, ptr %12, align 8, !tbaa !7
  store ptr %5, ptr %13, align 8, !tbaa !7
  store i32 %6, ptr %14, align 4, !tbaa !26
  call void @llvm.lifetime.start.p0(i64 8, ptr %15) #16
  store ptr null, ptr %15, align 8, !tbaa !75
  call void @llvm.lifetime.start.p0(i64 4, ptr %16) #16
  call void @llvm.lifetime.start.p0(i64 8, ptr %17) #16
  %19 = call noalias ptr @tmpfile()
  store ptr %19, ptr %17, align 8, !tbaa !76
  %20 = load ptr, ptr %10, align 8, !tbaa !7
  %21 = icmp ne ptr %20, null
  br i1 %21, label %22, label %26

22:                                               ; preds = %7
  %23 = load ptr, ptr %10, align 8, !tbaa !7
  %24 = load ptr, ptr %17, align 8, !tbaa !76
  %25 = call i32 @fputs(ptr noundef %23, ptr noundef %24)
  br label %26

26:                                               ; preds = %22, %7
  %27 = load ptr, ptr %13, align 8, !tbaa !7
  %28 = icmp ne ptr %27, null
  br i1 %28, label %29, label %33

29:                                               ; preds = %26
  %30 = load ptr, ptr %13, align 8, !tbaa !7
  %31 = load ptr, ptr %17, align 8, !tbaa !76
  %32 = call i32 @fputs(ptr noundef %30, ptr noundef %31)
  br label %33

33:                                               ; preds = %29, %26
  %34 = load ptr, ptr %17, align 8, !tbaa !76
  call void @rewind(ptr noundef %34)
  call void @llvm.lifetime.start.p0(i64 32, ptr %18) #16
  call void @llvm.memset.p0.i64(ptr align 8 %18, i8 0, i64 32, i1 false)
  %35 = load ptr, ptr %12, align 8, !tbaa !7
  %36 = icmp ne ptr %35, null
  br i1 %36, label %37, label %42

37:                                               ; preds = %33
  %38 = load ptr, ptr %12, align 8, !tbaa !7
  %39 = call i32 (ptr, ptr, ...) @agxbprint(ptr noundef %18, ptr noundef @.str.187, ptr noundef %38)
  %40 = load i32, ptr %11, align 4, !tbaa !26
  %41 = add nsw i32 %40, -1
  store i32 %41, ptr %11, align 4, !tbaa !26
  br label %42

42:                                               ; preds = %37, %33
  %43 = load ptr, ptr %9, align 8, !tbaa !7
  %44 = icmp ne ptr %43, null
  br i1 %44, label %46, label %45

45:                                               ; preds = %42
  store ptr @.str.188, ptr %9, align 8, !tbaa !7
  br label %46

46:                                               ; preds = %45, %42
  %47 = load ptr, ptr %8, align 8, !tbaa !74
  %48 = load ptr, ptr %9, align 8, !tbaa !7
  %49 = load i32, ptr %11, align 4, !tbaa !26
  %50 = load ptr, ptr %17, align 8, !tbaa !76
  %51 = load ptr, ptr %12, align 8, !tbaa !7
  %52 = icmp ne ptr %51, null
  br i1 %52, label %53, label %55

53:                                               ; preds = %46
  %54 = call ptr @agxbdisown(ptr noundef %18)
  br label %56

55:                                               ; preds = %46
  br label %56

56:                                               ; preds = %55, %53
  %57 = phi ptr [ %54, %53 ], [ null, %55 ]
  %58 = call i32 @excomp(ptr noundef %47, ptr noundef %48, i32 noundef %49, ptr noundef %50, ptr noundef %57)
  store i32 %58, ptr %16, align 4, !tbaa !26
  %59 = load ptr, ptr %17, align 8, !tbaa !76
  %60 = call i32 @fclose(ptr noundef %59)
  %61 = load i32, ptr %16, align 4, !tbaa !26
  %62 = icmp sge i32 %61, 0
  br i1 %62, label %63, label %71

63:                                               ; preds = %56
  %64 = call i32 @getErrorErrors()
  %65 = icmp eq i32 %64, 0
  br i1 %65, label %66, label %71

66:                                               ; preds = %63
  %67 = load ptr, ptr %8, align 8, !tbaa !74
  %68 = load ptr, ptr %12, align 8, !tbaa !7
  %69 = load i32, ptr %14, align 4, !tbaa !26
  %70 = call ptr @exexpr(ptr noundef %67, ptr noundef %68, ptr noundef null, i32 noundef %69)
  store ptr %70, ptr %15, align 8, !tbaa !75
  br label %71

71:                                               ; preds = %66, %63, %56
  %72 = load ptr, ptr %15, align 8, !tbaa !75
  call void @llvm.lifetime.end.p0(i64 32, ptr %18) #16
  call void @llvm.lifetime.end.p0(i64 8, ptr %17) #16
  call void @llvm.lifetime.end.p0(i64 4, ptr %16) #16
  call void @llvm.lifetime.end.p0(i64 8, ptr %15) #16
  ret ptr %72
}