; Function Attrs: nounwind uwtable
define internal fastcc ptr @compile(ptr noundef %0, ptr noundef %1, ptr noundef readonly captures(address_is_null) %2, i32 noundef %3, ptr noundef %4, ptr noundef readonly captures(address_is_null) %5, i32 noundef range(i32 259, 265) %6) unnamed_addr #0 {
  %8 = alloca %struct.agxbuf, align 8
  %9 = tail call noalias ptr @tmpfile()
  %.not = icmp eq ptr %2, null
  br i1 %.not, label %12, label %10

10:                                               ; preds = %7
  %11 = tail call i32 @fputs(ptr noundef nonnull %2, ptr noundef %9)
  br label %12

12:                                               ; preds = %10, %7
  %.not25 = icmp eq ptr %5, null
  br i1 %.not25, label %15, label %13

13:                                               ; preds = %12
  %14 = tail call i32 @fputs(ptr noundef nonnull %5, ptr noundef %9)
  br label %15

15:                                               ; preds = %13, %12
  tail call void @rewind(ptr noundef %9)
  call void @llvm.lifetime.start.p0(i64 32, ptr nonnull %8) #25
  call void @llvm.memset.p0.i64(ptr noundef nonnull align 8 dereferenceable(32) %8, i8 0, i64 32, i1 false)
  %.not26 = icmp eq ptr %4, null
  br i1 %.not26, label %.thread, label %16

.thread:                                          ; preds = %15
  %.not2729 = icmp eq ptr %1, null
  %spec.store.select30 = select i1 %.not2729, ptr @.str.188, ptr %1
  br label %agxbdisown.exit

16:                                               ; preds = %15
  call void (ptr, ptr, ...) @agxbprint(ptr noundef %8, ptr noundef nonnull @.str.187, ptr noundef nonnull %4)
  %17 = add nsw i32 %3, -1
  %.not27 = icmp eq ptr %1, null
  %spec.store.select = select i1 %.not27, ptr @.str.188, ptr %1
  %18 = getelementptr inbounds nuw i8, ptr %8, i64 31
  %.val.i = load i8, ptr %18, align 1, !tbaa !65
  %.not.i = icmp eq i8 %.val.i, -1
  br i1 %.not.i, label %agxbsizeof.exit.i.i, label %agxblen.exit.i

agxblen.exit.i:                                   ; preds = %16
  %19 = zext i8 %.val.i to i64
  %20 = call noalias ptr @strndup(ptr noundef nonnull readonly %8, i64 noundef %19) #25
  %21 = icmp eq ptr %20, null
  br i1 %21, label %22, label %agxbdisown.exit

22:                                               ; preds = %agxblen.exit.i
  %23 = load ptr, ptr @stderr, align 8, !tbaa !51
  %24 = add nuw nsw i64 %19, 1
  %25 = tail call i32 (ptr, ptr, ...) @fprintf(ptr noundef %23, ptr noundef nonnull @.str.46, i64 noundef %24) #26
  tail call fastcc void @graphviz_exit() #27
  unreachable

agxbsizeof.exit.i.i:                              ; preds = %16
  %26 = getelementptr inbounds nuw i8, ptr %8, i64 8
  %27 = load i64, ptr %26, align 8, !tbaa !65
  %28 = getelementptr inbounds nuw i8, ptr %8, i64 16
  %29 = load i64, ptr %28, align 8, !tbaa !65
  %.not.i7.i = icmp ult i64 %27, %29
  br i1 %.not.i7.i, label %.thread.i, label %30

30:                                               ; preds = %agxbsizeof.exit.i.i
  call fastcc void @agxbmore(ptr noundef nonnull %8, i64 noundef 1)
  %.val.i15.pre.i.i = load i8, ptr %18, align 1, !tbaa !65
  %.not.i16.i.i = icmp eq i8 %.val.i15.pre.i.i, -1
  br i1 %.not.i16.i.i, label %..thread_crit_edge.i, label %31

..thread_crit_edge.i:                             ; preds = %30
  %.pre.i = load i64, ptr %26, align 8, !tbaa !65
  br label %.thread.i

31:                                               ; preds = %30
  %32 = zext i8 %.val.i15.pre.i.i to i64
  %33 = getelementptr inbounds nuw [31 x i8], ptr %8, i64 0, i64 %32
  store i8 0, ptr %33, align 1, !tbaa !65
  %.pre = load ptr, ptr %8, align 8, !tbaa !65
  br label %agxbdisown.exit

.thread.i:                                        ; preds = %..thread_crit_edge.i, %agxbsizeof.exit.i.i
  %34 = phi i64 [ %.pre.i, %..thread_crit_edge.i ], [ %27, %agxbsizeof.exit.i.i ]
  %35 = load ptr, ptr %8, align 8, !tbaa !65
  %36 = getelementptr inbounds nuw i8, ptr %35, i64 %34
  store i8 0, ptr %36, align 1, !tbaa !65
  br label %agxbdisown.exit

agxbdisown.exit:                                  ; preds = %agxblen.exit.i, %.thread.i, %31, %.thread
  %spec.store.select32 = phi ptr [ %spec.store.select30, %.thread ], [ %spec.store.select, %31 ], [ %spec.store.select, %.thread.i ], [ %spec.store.select, %agxblen.exit.i ]
  %.031 = phi i32 [ %3, %.thread ], [ %17, %31 ], [ %17, %.thread.i ], [ %17, %agxblen.exit.i ]
  %37 = phi ptr [ null, %.thread ], [ %.pre, %31 ], [ %35, %.thread.i ], [ %20, %agxblen.exit.i ]
  %38 = tail call i32 @excomp(ptr noundef %0, ptr noundef nonnull %spec.store.select32, i32 noundef %.031, ptr noundef %9, ptr noundef %37) #25
  %39 = tail call i32 @fclose(ptr noundef %9)
  %40 = icmp sgt i32 %38, -1
  br i1 %40, label %41, label %46

41:                                               ; preds = %agxbdisown.exit
  %42 = tail call i32 @getErrorErrors() #25
  %43 = icmp eq i32 %42, 0
  br i1 %43, label %44, label %46

44:                                               ; preds = %41
  %45 = tail call ptr @exexpr(ptr noundef %0, ptr noundef %4, ptr noundef null, i32 noundef %6) #25
  br label %46

46:                                               ; preds = %44, %41, %agxbdisown.exit
  %.021 = phi ptr [ %45, %44 ], [ null, %41 ], [ null, %agxbdisown.exit ]
  call void @llvm.lifetime.end.p0(i64 32, ptr nonnull %8) #25
  ret ptr %.021
}